target datalayout = "e-m:e-p270:32:32-p271:32:32-p272:64:64-i64:64-i128:128-f80:128-n8:16:32:64-S128"
target triple = "x86_64-pc-linux-gnu"

%struct.pkcs7_st = type { ptr, i64, i32, i32, ptr, %union.anon, %struct.PKCS7_CTX_st }
%union.anon = type { ptr }
%struct.PKCS7_CTX_st = type { ptr, ptr }
%struct.pkcs7_signed_st = type { ptr, ptr, ptr, ptr, ptr, ptr }
%struct.pkcs7_signedandenveloped_st = type { ptr, ptr, ptr, ptr, ptr, ptr, ptr }

@.str = private unnamed_addr constant [34 x i8] c"../openssl/crypto/pkcs7/pk7_lib.c\00", align 1
@__func__.PKCS7_add_crl = private unnamed_addr constant [14 x i8] c"PKCS7_add_crl\00", align 1

; Function Attrs: inlinehint nounwind uwtable
define internal ptr @ossl_check_X509_CRL_type(ptr noundef %0) #3 {
  %2 = alloca ptr, align 8
  store ptr %0, ptr %2, align 8, !tbaa !78
  %3 = load ptr, ptr %2, align 8, !tbaa !78
  ret ptr %3
}

; Function Attrs: inlinehint nounwind uwtable
define internal ptr @ossl_check_X509_CRL_sk_type(ptr noundef %0) #3 {
  %2 = alloca ptr, align 8
  store ptr %0, ptr %2, align 8, !tbaa !82
  %3 = load ptr, ptr %2, align 8, !tbaa !82
  ret ptr %3
}

; Function Attrs: nounwind uwtable
define i32 @PKCS7_add_crl(ptr noundef %0, ptr noundef %1) #0 {
  %3 = alloca i32, align 4
  %4 = alloca ptr, align 8
  %5 = alloca ptr, align 8
  %6 = alloca i32, align 4
  %7 = alloca ptr, align 8
  %8 = alloca i32, align 4
  store ptr %0, ptr %4, align 8, !tbaa !3
  store ptr %1, ptr %5, align 8, !tbaa !78
  call void @llvm.lifetime.start.p0(i64 4, ptr %6) #4
  call void @llvm.lifetime.start.p0(i64 8, ptr %7) #4
  %9 = load ptr, ptr %4, align 8, !tbaa !3
  %10 = getelementptr inbounds nuw %struct.pkcs7_st, ptr %9, i32 0, i32 4
  %11 = load ptr, ptr %10, align 8, !tbaa !14
  %12 = call i32 @OBJ_obj2nid(ptr noundef %11)
  store i32 %12, ptr %6, align 4, !tbaa !8
  %13 = load i32, ptr %6, align 4, !tbaa !8
  switch i32 %13, label %24 [
    i32 22, label %14
    i32 24, label %19
  ]

14:                                               ; preds = %2
  %15 = load ptr, ptr %4, align 8, !tbaa !3
  %16 = getelementptr inbounds nuw %struct.pkcs7_st, ptr %15, i32 0, i32 5
  %17 = load ptr, ptr %16, align 8, !tbaa !19
  %18 = getelementptr inbounds nuw %struct.pkcs7_signed_st, ptr %17, i32 0, i32 3
  store ptr %18, ptr %7, align 8, !tbaa !80
  br label %25

19:                                               ; preds = %2
  %20 = load ptr, ptr %4, align 8, !tbaa !3
  %21 = getelementptr inbounds nuw %struct.pkcs7_st, ptr %20, i32 0, i32 5
  %22 = load ptr, ptr %21, align 8, !tbaa !19
  %23 = getelementptr inbounds nuw %struct.pkcs7_signedandenveloped_st, ptr %22, i32 0, i32 3
  store ptr %23, ptr %7, align 8, !tbaa !80
  br label %25

24:                                               ; preds = %2
  call void @ERR_new()
  call void @ERR_set_debug(ptr noundef @.str, i32 noundef 291, ptr noundef @__func__.PKCS7_add_crl)
  call void (i32, i32, ptr, ...) @ERR_set_error(i32 noundef 33, i32 noundef 113, ptr noundef null)
  store i32 0, ptr %3, align 4
  store i32 1, ptr %8, align 4
  br label %50

25:                                               ; preds = %19, %14
  %26 = load ptr, ptr %7, align 8, !tbaa !80
  %27 = load ptr, ptr %26, align 8, !tbaa !82
  %28 = icmp eq ptr %27, null
  br i1 %28, label %29, label %32

29:                                               ; preds = %25
  %30 = call ptr @OPENSSL_sk_new_null()
  %31 = load ptr, ptr %7, align 8, !tbaa !80
  store ptr %30, ptr %31, align 8, !tbaa !82
  br label %32

32:                                               ; preds = %29, %25
  %33 = load ptr, ptr %7, align 8, !tbaa !80
  %34 = load ptr, ptr %33, align 8, !tbaa !82
  %35 = icmp eq ptr %34, null
  br i1 %35, label %36, label %37

36:                                               ; preds = %32
  call void @ERR_new()
  call void @ERR_set_debug(ptr noundef @.str, i32 noundef 298, ptr noundef @__func__.PKCS7_add_crl)
  call void (i32, i32, ptr, ...) @ERR_set_error(i32 noundef 33, i32 noundef 524303, ptr noundef null)
  store i32 0, ptr %3, align 4
  store i32 1, ptr %8, align 4
  br label %50

37:                                               ; preds = %32
  %38 = load ptr, ptr %5, align 8, !tbaa !78
  %39 = call i32 @X509_CRL_up_ref(ptr noundef %38)
  %40 = load ptr, ptr %7, align 8, !tbaa !80
  %41 = load ptr, ptr %40, align 8, !tbaa !82
  %42 = call ptr @ossl_check_X509_CRL_sk_type(ptr noundef %41)
  %43 = load ptr, ptr %5, align 8, !tbaa !78
  %44 = call ptr @ossl_check_X509_CRL_type(ptr noundef %43)
  %45 = call i32 @OPENSSL_sk_push(ptr noundef %42, ptr noundef %44)
  %46 = icmp ne i32 %45, 0
  br i1 %46, label %49, label %47

47:                                               ; preds = %37
  %48 = load ptr, ptr %5, align 8, !tbaa !78
  call void @X509_CRL_free(ptr noundef %48)
  store i32 0, ptr %3, align 4
  store i32 1, ptr %8, align 4
  br label %50

49:                                               ; preds = %37
  store i32 1, ptr %3, align 4
  store i32 1, ptr %8, align 4
  br label %50

50:                                               ; preds = %49, %47, %36, %24
  call void @llvm.lifetime.end.p0(i64 8, ptr %7) #4
  call void @llvm.lifetime.end.p0(i64 4, ptr %6) #4
  %51 = load i32, ptr %3, align 4
  ret i32 %51
}