; Function Attrs: nounwind uwtable
define range(i32 0, 2) i32 @PKCS7_add_crl(ptr noundef readonly captures(none) %0, ptr noundef %1) local_unnamed_addr #0 {
  %3 = getelementptr inbounds nuw i8, ptr %0, i64 24
  %4 = load ptr, ptr %3, align 8, !tbaa !3
  %5 = tail call i32 @OBJ_obj2nid(ptr noundef %4) #7
  switch i32 %5, label %6 [
    i32 22, label %7
    i32 24, label %7
  ]

6:                                                ; preds = %2
  tail call void @ERR_new() #7
  tail call void @ERR_set_debug(ptr noundef nonnull @.str, i32 noundef 291, ptr noundef nonnull @__func__.PKCS7_add_crl) #7
  tail call void (i32, i32, ptr, ...) @ERR_set_error(i32 noundef 33, i32 noundef 113, ptr noundef null) #7
  br label %18

7:                                                ; preds = %2, %2
  %.pn.in = getelementptr inbounds nuw i8, ptr %0, i64 32
  %.pn = load ptr, ptr %.pn.in, align 8, !tbaa !14
  %.0 = getelementptr inbounds nuw i8, ptr %.pn, i64 24
  %8 = load ptr, ptr %.0, align 8, !tbaa !60
  %9 = icmp eq ptr %8, null
  br i1 %9, label %10, label %.thread

10:                                               ; preds = %7
  %11 = tail call ptr @OPENSSL_sk_new_null() #7
  store ptr %11, ptr %.0, align 8, !tbaa !60
  %12 = icmp eq ptr %11, null
  br i1 %12, label %13, label %.thread

13:                                               ; preds = %10
  tail call void @ERR_new() #7
  tail call void @ERR_set_debug(ptr noundef nonnull @.str, i32 noundef 298, ptr noundef nonnull @__func__.PKCS7_add_crl) #7
  tail call void (i32, i32, ptr, ...) @ERR_set_error(i32 noundef 33, i32 noundef 524303, ptr noundef null) #7
  br label %18

.thread:                                          ; preds = %7, %10
  %14 = tail call i32 @X509_CRL_up_ref(ptr noundef %1) #7
  %15 = load ptr, ptr %.0, align 8, !tbaa !60
  %16 = tail call i32 @OPENSSL_sk_push(ptr noundef %15, ptr noundef %1) #7
  %.not = icmp eq i32 %16, 0
  br i1 %.not, label %17, label %18

17:                                               ; preds = %.thread
  tail call void @X509_CRL_free(ptr noundef %1) #7
  br label %18

18:                                               ; preds = %.thread, %17, %13, %6
  %.011 = phi i32 [ 0, %6 ], [ 0, %13 ], [ 0, %17 ], [ 1, %.thread ]
  ret i32 %.011
}